target datalayout = "e-m:e-p270:32:32-p271:32:32-p272:64:64-i64:64-i128:128-f80:128-n8:16:32:64-S128"
target triple = "x86_64-pc-linux-gnu"

%struct._GtkDarktableGradientSlider = type { %struct._GtkDrawingArea, ptr, i32, i32, i32, [10 x double], [10 x double], [10 x i32], double, double, [3 x double], i32, i32, i32, i32, i32, i32, i32, i32, i32, ptr }
%struct._GtkDrawingArea = type { %struct._GtkWidget, ptr }
%struct._GtkWidget = type { %struct._GObject, ptr }
%struct._GObject = type { %struct._GTypeInstance, i32, ptr }
%struct._GTypeInstance = type { ptr }

@.str.1 = private unnamed_addr constant [16 x i8] c"gslider != NULL\00", align 1
@__func__.dtgtk_gradient_slider_multivalue_set_picker_meanminmax = private unnamed_addr constant [55 x i8] c"dtgtk_gradient_slider_multivalue_set_picker_meanminmax\00", align 1

; Function Attrs: nounwind uwtable
define void @dtgtk_gradient_slider_multivalue_set_picker_meanminmax(ptr noundef %0, double noundef %1, double noundef %2, double noundef %3) #0 {
  %5 = alloca ptr, align 8
  %6 = alloca double, align 8
  %7 = alloca double, align 8
  %8 = alloca double, align 8
  %9 = alloca i32, align 4
  %10 = alloca i32, align 4
  store ptr %0, ptr %5, align 8, !tbaa !24
  store double %1, ptr %6, align 8, !tbaa !45
  store double %2, ptr %7, align 8, !tbaa !45
  store double %3, ptr %8, align 8, !tbaa !45
  br label %11

11:                                               ; preds = %4
  call void @llvm.lifetime.start.p0(i64 4, ptr %9) #11
  %12 = load ptr, ptr %5, align 8, !tbaa !24
  %13 = icmp ne ptr %12, null
  br i1 %13, label %14, label %15

14:                                               ; preds = %11
  store i32 1, ptr %9, align 4, !tbaa !13
  br label %16

15:                                               ; preds = %11
  store i32 0, ptr %9, align 4, !tbaa !13
  br label %16

16:                                               ; preds = %15, %14
  %17 = load i32, ptr %9, align 4, !tbaa !13
  store i32 %17, ptr %10, align 4, !tbaa !13
  call void @llvm.lifetime.end.p0(i64 4, ptr %9) #11
  %18 = load i32, ptr %10, align 4, !tbaa !13
  %19 = sext i32 %18 to i64
  %20 = call i64 @llvm.expect.i64(i64 %19, i64 1)
  %21 = icmp ne i64 %20, 0
  br i1 %21, label %22, label %23

22:                                               ; preds = %16
  br label %24

23:                                               ; preds = %16
  call void @g_return_if_fail_warning(ptr noundef null, ptr noundef @__func__.dtgtk_gradient_slider_multivalue_set_picker_meanminmax, ptr noundef @.str.1)
  br label %62

24:                                               ; preds = %22
  br label %25

25:                                               ; preds = %24
  %26 = load ptr, ptr %5, align 8, !tbaa !24
  %27 = getelementptr inbounds nuw %struct._GtkDarktableGradientSlider, ptr %26, i32 0, i32 20
  %28 = load ptr, ptr %27, align 8, !tbaa !43
  %29 = load ptr, ptr %5, align 8, !tbaa !24
  %30 = load double, ptr %6, align 8, !tbaa !45
  %31 = fptrunc reassoc nsz arcp contract afn double %30 to float
  %32 = call reassoc nsz arcp contract afn float %28(ptr noundef %29, float noundef %31, i32 noundef 1)
  %33 = fpext reassoc nsz arcp contract afn float %32 to double
  %34 = load ptr, ptr %5, align 8, !tbaa !24
  %35 = getelementptr inbounds nuw %struct._GtkDarktableGradientSlider, ptr %34, i32 0, i32 10
  %36 = getelementptr inbounds [3 x double], ptr %35, i64 0, i64 0
  store double %33, ptr %36, align 8, !tbaa !45
  %37 = load ptr, ptr %5, align 8, !tbaa !24
  %38 = getelementptr inbounds nuw %struct._GtkDarktableGradientSlider, ptr %37, i32 0, i32 20
  %39 = load ptr, ptr %38, align 8, !tbaa !43
  %40 = load ptr, ptr %5, align 8, !tbaa !24
  %41 = load double, ptr %7, align 8, !tbaa !45
  %42 = fptrunc reassoc nsz arcp contract afn double %41 to float
  %43 = call reassoc nsz arcp contract afn float %39(ptr noundef %40, float noundef %42, i32 noundef 1)
  %44 = fpext reassoc nsz arcp contract afn float %43 to double
  %45 = load ptr, ptr %5, align 8, !tbaa !24
  %46 = getelementptr inbounds nuw %struct._GtkDarktableGradientSlider, ptr %45, i32 0, i32 10
  %47 = getelementptr inbounds [3 x double], ptr %46, i64 0, i64 1
  store double %44, ptr %47, align 8, !tbaa !45
  %48 = load ptr, ptr %5, align 8, !tbaa !24
  %49 = getelementptr inbounds nuw %struct._GtkDarktableGradientSlider, ptr %48, i32 0, i32 20
  %50 = load ptr, ptr %49, align 8, !tbaa !43
  %51 = load ptr, ptr %5, align 8, !tbaa !24
  %52 = load double, ptr %8, align 8, !tbaa !45
  %53 = fptrunc reassoc nsz arcp contract afn double %52 to float
  %54 = call reassoc nsz arcp contract afn float %50(ptr noundef %51, float noundef %53, i32 noundef 1)
  %55 = fpext reassoc nsz arcp contract afn float %54 to double
  %56 = load ptr, ptr %5, align 8, !tbaa !24
  %57 = getelementptr inbounds nuw %struct._GtkDarktableGradientSlider, ptr %56, i32 0, i32 10
  %58 = getelementptr inbounds [3 x double], ptr %57, i64 0, i64 2
  store double %55, ptr %58, align 8, !tbaa !45
  %59 = load ptr, ptr %5, align 8, !tbaa !24
  %60 = call i64 @gtk_widget_get_type() #12
  %61 = call ptr @g_type_check_instance_cast(ptr noundef %59, i64 noundef %60)
  call void @gtk_widget_queue_draw(ptr noundef %61)
  br label %62

62:                                               ; preds = %25, %23
  ret void
}