; Function Attrs: nounwind uwtable
define void @dtgtk_gradient_slider_multivalue_set_picker_meanminmax(ptr noundef %0, double noundef %1, double noundef %2, double noundef %3) local_unnamed_addr #0 {
  %.not = icmp eq ptr %0, null
  br i1 %.not, label %5, label %6, !prof !45

5:                                                ; preds = %4
  tail call void @g_return_if_fail_warning(ptr noundef null, ptr noundef nonnull @__func__.dtgtk_gradient_slider_multivalue_set_picker_meanminmax, ptr noundef nonnull @.str.1) #14
  br label %25

6:                                                ; preds = %4
  %7 = getelementptr inbounds nuw i8, ptr %0, i64 344
  %8 = load ptr, ptr %7, align 8, !tbaa !34
  %9 = fptrunc reassoc nsz arcp contract afn double %1 to float
  %10 = tail call reassoc nsz arcp contract afn float %8(ptr noundef nonnull %0, float noundef %9, i32 noundef 1) #14
  %11 = fpext reassoc nsz arcp contract afn float %10 to double
  %12 = getelementptr inbounds nuw i8, ptr %0, i64 280
  store double %11, ptr %12, align 8, !tbaa !37
  %13 = load ptr, ptr %7, align 8, !tbaa !34
  %14 = fptrunc reassoc nsz arcp contract afn double %2 to float
  %15 = tail call reassoc nsz arcp contract afn float %13(ptr noundef nonnull %0, float noundef %14, i32 noundef 1) #14
  %16 = fpext reassoc nsz arcp contract afn float %15 to double
  %17 = getelementptr inbounds nuw i8, ptr %0, i64 288
  store double %16, ptr %17, align 8, !tbaa !37
  %18 = load ptr, ptr %7, align 8, !tbaa !34
  %19 = fptrunc reassoc nsz arcp contract afn double %3 to float
  %20 = tail call reassoc nsz arcp contract afn float %18(ptr noundef nonnull %0, float noundef %19, i32 noundef 1) #14
  %21 = fpext reassoc nsz arcp contract afn float %20 to double
  %22 = getelementptr inbounds nuw i8, ptr %0, i64 296
  store double %21, ptr %22, align 8, !tbaa !37
  %23 = tail call i64 @gtk_widget_get_type() #15
  %24 = tail call ptr @g_type_check_instance_cast(ptr noundef nonnull %0, i64 noundef %23) #14
  tail call void @gtk_widget_queue_draw(ptr noundef %24) #14
  br label %25

25:                                               ; preds = %6, %5
  ret void
}